target datalayout = "e-m:e-p270:32:32-p271:32:32-p272:64:64-i64:64-i128:128-f80:128-n8:16:32:64-S128"
target triple = "x86_64-pc-linux-gnu"

%struct.ident_t = type { i32, i32, i32, i32, ptr }
%"class.std::linear_congruential_engine" = type { i64 }
%"class.std::uniform_int_distribution" = type { %"struct.std::uniform_int_distribution<unsigned char>::param_type" }
%"struct.std::uniform_int_distribution<unsigned char>::param_type" = type { i8, i8 }
%"struct.std::_Vector_base.4" = type { %"struct.std::_Vector_base<unsigned char, std::allocator<unsigned char>>::_Vector_impl" }
%"struct.std::_Vector_base<unsigned char, std::allocator<unsigned char>>::_Vector_impl" = type { %"struct.std::_Vector_base<unsigned char, std::allocator<unsigned char>>::_Vector_impl_data" }
%"struct.std::_Vector_base<unsigned char, std::allocator<unsigned char>>::_Vector_impl_data" = type { ptr, ptr, ptr }

@1 = private unnamed_addr constant %struct.ident_t { i32 0, i32 2, i32 0, i32 22, ptr @0 }, align 8
@2 = private unnamed_addr constant %struct.ident_t { i32 0, i32 66, i32 0, i32 22, ptr @0 }, align 8

; Function Attrs: mustprogress nounwind uwtable
define linkonce_odr dso_local noundef i64 @_ZNSt8__detail4_ModImLm2147483647ELm1ELm0ELb1ELb1EE6__calcEm(i64 noundef %0) #0 comdat align 2 {
  %2 = alloca i64, align 8
  %3 = alloca i64, align 8
  store i64 %0, ptr %2, align 8, !tbaa !20
  call void @llvm.lifetime.start.p0(i64 8, ptr %3) #5
  %4 = load i64, ptr %2, align 8, !tbaa !20
  %5 = mul i64 1, %4
  %6 = add i64 %5, 0
  store i64 %6, ptr %3, align 8, !tbaa !20
  %7 = load i64, ptr %3, align 8, !tbaa !20
  %8 = urem i64 %7, 2147483647
  store i64 %8, ptr %3, align 8, !tbaa !20
  %9 = load i64, ptr %3, align 8, !tbaa !20
  call void @llvm.lifetime.end.p0(i64 8, ptr %3) #5
  ret i64 %9
}

; Function Attrs: inlinehint mustprogress uwtable
define linkonce_odr dso_local noundef i64 @_ZNSt8__detail5__modImTnT_Lm2147483647ETnS1_Lm1ETnS1_Lm0EEES1_S1_(i64 noundef %0) #12 comdat {
  %2 = alloca i64, align 8
  %3 = alloca i64, align 8
  store i64 %0, ptr %2, align 8, !tbaa !20
  call void @llvm.lifetime.start.p0(i64 8, ptr %3) #5
  store i64 1, ptr %3, align 8, !tbaa !20
  %4 = load i64, ptr %2, align 8, !tbaa !20
  %5 = call noundef i64 @_ZNSt8__detail4_ModImLm2147483647ELm1ELm0ELb1ELb1EE6__calcEm(i64 noundef %4)
  call void @llvm.lifetime.end.p0(i64 8, ptr %3) #5
  ret i64 %5
}

; Function Attrs: mustprogress nounwind uwtable
define linkonce_odr dso_local void @_ZNSt24uniform_int_distributionIhE10param_typeC2Ehh(ptr noundef nonnull align 1 dereferenceable(2) %0, i8 noundef zeroext %1, i8 noundef zeroext %2) unnamed_addr #0 comdat align 2 {
  %4 = alloca ptr, align 8
  %5 = alloca i8, align 1
  %6 = alloca i8, align 1
  store ptr %0, ptr %4, align 8, !tbaa !134
  store i8 %1, ptr %5, align 1, !tbaa !53
  store i8 %2, ptr %6, align 1, !tbaa !53
  %7 = load ptr, ptr %4, align 8
  %8 = getelementptr inbounds nuw %"struct.std::uniform_int_distribution<unsigned char>::param_type", ptr %7, i32 0, i32 0
  %9 = load i8, ptr %5, align 1, !tbaa !53
  store i8 %9, ptr %8, align 1, !tbaa !136
  %10 = getelementptr inbounds nuw %"struct.std::uniform_int_distribution<unsigned char>::param_type", ptr %7, i32 0, i32 1
  %11 = load i8, ptr %6, align 1, !tbaa !53
  store i8 %11, ptr %10, align 1, !tbaa !138
  br label %12

12:                                               ; preds = %3
  br label %13

13:                                               ; preds = %12
  ret void
}

; Function Attrs: mustprogress uwtable
define linkonce_odr dso_local void @_ZNSt26linear_congruential_engineImLm48271ELm0ELm2147483647EE4seedEm(ptr noundef nonnull align 8 dereferenceable(8) %0, i64 noundef %1) #2 comdat align 2 {
  %3 = alloca ptr, align 8
  %4 = alloca i64, align 8
  store ptr %0, ptr %3, align 8, !tbaa !49
  store i64 %1, ptr %4, align 8, !tbaa !20
  %5 = load ptr, ptr %3, align 8
  %6 = call noundef i64 @_ZNSt8__detail5__modImTnT_Lm2147483647ETnS1_Lm1ETnS1_Lm0EEES1_S1_(i64 noundef 0)
  %7 = icmp eq i64 %6, 0
  br i1 %7, label %8, label %14

8:                                                ; preds = %2
  %9 = load i64, ptr %4, align 8, !tbaa !20
  %10 = call noundef i64 @_ZNSt8__detail5__modImTnT_Lm2147483647ETnS1_Lm1ETnS1_Lm0EEES1_S1_(i64 noundef %9)
  %11 = icmp eq i64 %10, 0
  br i1 %11, label %12, label %14

12:                                               ; preds = %8
  %13 = getelementptr inbounds nuw %"class.std::linear_congruential_engine", ptr %5, i32 0, i32 0
  store i64 1, ptr %13, align 8, !tbaa !132
  br label %18

14:                                               ; preds = %8, %2
  %15 = load i64, ptr %4, align 8, !tbaa !20
  %16 = call noundef i64 @_ZNSt8__detail5__modImTnT_Lm2147483647ETnS1_Lm1ETnS1_Lm0EEES1_S1_(i64 noundef %15)
  %17 = getelementptr inbounds nuw %"class.std::linear_congruential_engine", ptr %5, i32 0, i32 0
  store i64 %16, ptr %17, align 8, !tbaa !132
  br label %18

18:                                               ; preds = %14, %12
  ret void
}

; Function Attrs: mustprogress nounwind uwtable
define linkonce_odr dso_local noundef nonnull align 1 dereferenceable(1) ptr @_ZNSt6vectorIhSaIhEEixEm(ptr noundef nonnull align 8 dereferenceable(24) %0, i64 noundef %1) #0 comdat align 2 {
  %3 = alloca ptr, align 8
  %4 = alloca i64, align 8
  store ptr %0, ptr %3, align 8, !tbaa !64
  store i64 %1, ptr %4, align 8, !tbaa !20
  %5 = load ptr, ptr %3, align 8
  %6 = getelementptr inbounds nuw %"struct.std::_Vector_base.4", ptr %5, i32 0, i32 0
  %7 = getelementptr inbounds nuw %"struct.std::_Vector_base<unsigned char, std::allocator<unsigned char>>::_Vector_impl_data", ptr %6, i32 0, i32 0
  %8 = load ptr, ptr %7, align 8, !tbaa !75
  %9 = load i64, ptr %4, align 8, !tbaa !20
  %10 = getelementptr inbounds nuw i8, ptr %8, i64 %9
  ret ptr %10
}

; Function Attrs: mustprogress uwtable
define linkonce_odr dso_local noundef zeroext i8 @_ZNSt24uniform_int_distributionIhEclISt26linear_congruential_engineImLm48271ELm0ELm2147483647EEEEhRT_(ptr noundef nonnull align 1 dereferenceable(2) %0, ptr noundef nonnull align 8 dereferenceable(8) %1) #2 comdat align 2 {
  %3 = alloca ptr, align 8
  %4 = alloca ptr, align 8
  store ptr %0, ptr %3, align 8, !tbaa !51
  store ptr %1, ptr %4, align 8, !tbaa !49
  %5 = load ptr, ptr %3, align 8
  %6 = load ptr, ptr %4, align 8, !tbaa !49
  %7 = getelementptr inbounds nuw %"class.std::uniform_int_distribution", ptr %5, i32 0, i32 0
  %8 = call noundef zeroext i8 @_ZNSt24uniform_int_distributionIhEclISt26linear_congruential_engineImLm48271ELm0ELm2147483647EEEEhRT_RKNS0_10param_typeE(ptr noundef nonnull align 1 dereferenceable(2) %5, ptr noundef nonnull align 8 dereferenceable(8) %6, ptr noundef nonnull align 1 dereferenceable(2) %7)
  ret i8 %8
}

; Function Attrs: mustprogress nounwind uwtable
define linkonce_odr dso_local noundef i64 @_ZNKSt6vectorIhSaIhEE4sizeEv(ptr noundef nonnull align 8 dereferenceable(24) %0) #0 comdat align 2 {
  %2 = alloca ptr, align 8
  store ptr %0, ptr %2, align 8, !tbaa !64
  %3 = load ptr, ptr %2, align 8
  %4 = getelementptr inbounds nuw %"struct.std::_Vector_base.4", ptr %3, i32 0, i32 0
  %5 = getelementptr inbounds nuw %"struct.std::_Vector_base<unsigned char, std::allocator<unsigned char>>::_Vector_impl_data", ptr %4, i32 0, i32 1
  %6 = load ptr, ptr %5, align 8, !tbaa !73
  %7 = getelementptr inbounds nuw %"struct.std::_Vector_base.4", ptr %3, i32 0, i32 0
  %8 = getelementptr inbounds nuw %"struct.std::_Vector_base<unsigned char, std::allocator<unsigned char>>::_Vector_impl_data", ptr %7, i32 0, i32 0
  %9 = load ptr, ptr %8, align 8, !tbaa !75
  %10 = ptrtoint ptr %6 to i64
  %11 = ptrtoint ptr %9 to i64
  %12 = sub i64 %10, %11
  ret i64 %12
}

; Function Attrs: mustprogress uwtable
define linkonce_odr dso_local void @_ZNSt24uniform_int_distributionIhEC2Ehh(ptr noundef nonnull align 1 dereferenceable(2) %0, i8 noundef zeroext %1, i8 noundef zeroext %2) unnamed_addr #2 comdat align 2 {
  %4 = alloca ptr, align 8
  %5 = alloca i8, align 1
  %6 = alloca i8, align 1
  store ptr %0, ptr %4, align 8, !tbaa !51
  store i8 %1, ptr %5, align 1, !tbaa !53
  store i8 %2, ptr %6, align 1, !tbaa !53
  %7 = load ptr, ptr %4, align 8
  %8 = getelementptr inbounds nuw %"class.std::uniform_int_distribution", ptr %7, i32 0, i32 0
  %9 = load i8, ptr %5, align 1, !tbaa !53
  %10 = load i8, ptr %6, align 1, !tbaa !53
  call void @_ZNSt24uniform_int_distributionIhE10param_typeC2Ehh(ptr noundef nonnull align 1 dereferenceable(2) %8, i8 noundef zeroext %9, i8 noundef zeroext %10)
  ret void
}

; Function Attrs: mustprogress uwtable
define linkonce_odr dso_local void @_ZNSt26linear_congruential_engineImLm48271ELm0ELm2147483647EEC2Em(ptr noundef nonnull align 8 dereferenceable(8) %0, i64 noundef %1) unnamed_addr #2 comdat align 2 {
  %3 = alloca ptr, align 8
  %4 = alloca i64, align 8
  store ptr %0, ptr %3, align 8, !tbaa !49
  store i64 %1, ptr %4, align 8, !tbaa !20
  %5 = load ptr, ptr %3, align 8
  %6 = load i64, ptr %4, align 8, !tbaa !20
  call void @_ZNSt26linear_congruential_engineImLm48271ELm0ELm2147483647EE4seedEm(ptr noundef nonnull align 8 dereferenceable(8) %5, i64 noundef %6)
  ret void
}

; Function Attrs: alwaysinline norecurse nounwind uwtable
define internal void @_Z4testmmmm.omp_outlined(ptr noalias noundef %0, ptr noalias noundef %1, ptr noundef nonnull align 8 dereferenceable(24) %2) #9 personality ptr @__gxx_personality_v0 {
  %4 = alloca ptr, align 8
  %5 = alloca ptr, align 8
  %6 = alloca ptr, align 8
  %7 = alloca %"class.std::linear_congruential_engine", align 8
  %8 = alloca %"class.std::uniform_int_distribution", align 1
  %9 = alloca i64, align 8
  %10 = alloca i64, align 8
  %11 = alloca i64, align 8
  %12 = alloca i64, align 8
  %13 = alloca i64, align 8
  %14 = alloca i64, align 8
  %15 = alloca i64, align 8
  %16 = alloca i32, align 4
  %17 = alloca i64, align 8
  store ptr %0, ptr %4, align 8, !tbaa !68
  store ptr %1, ptr %5, align 8, !tbaa !68
  store ptr %2, ptr %6, align 8, !tbaa !64
  %18 = load ptr, ptr %6, align 8, !tbaa !64
  call void @llvm.lifetime.start.p0(i64 8, ptr %7) #5
  invoke void @_ZNSt26linear_congruential_engineImLm48271ELm0ELm2147483647EEC2Em(ptr noundef nonnull align 8 dereferenceable(8) %7, i64 noundef 123)
          to label %19 unwind label %67

19:                                               ; preds = %3
  call void @llvm.lifetime.start.p0(i64 2, ptr %8) #5
  invoke void @_ZNSt24uniform_int_distributionIhEC2Ehh(ptr noundef nonnull align 1 dereferenceable(2) %8, i8 noundef zeroext 0, i8 noundef zeroext -1)
          to label %20 unwind label %67

20:                                               ; preds = %19
  call void @llvm.lifetime.start.p0(i64 8, ptr %9) #5
  call void @llvm.lifetime.start.p0(i64 8, ptr %10) #5
  %21 = call noundef i64 @_ZNKSt6vectorIhSaIhEE4sizeEv(ptr noundef nonnull align 8 dereferenceable(24) %18) #5
  store i64 %21, ptr %10, align 8, !tbaa !20
  call void @llvm.lifetime.start.p0(i64 8, ptr %11) #5
  %22 = load i64, ptr %10, align 8, !tbaa !20
  %23 = sub i64 %22, 0
  %24 = udiv i64 %23, 1
  %25 = sub i64 %24, 1
  store i64 %25, ptr %11, align 8, !tbaa !20
  call void @llvm.lifetime.start.p0(i64 8, ptr %12) #5
  store i64 0, ptr %12, align 8, !tbaa !20
  call void @llvm.lifetime.end.p0(i64 8, ptr %12) #5
  %26 = load i64, ptr %10, align 8, !tbaa !20
  %27 = icmp ult i64 0, %26
  br i1 %27, label %28, label %64

28:                                               ; preds = %20
  call void @llvm.lifetime.start.p0(i64 8, ptr %13) #5
  store i64 0, ptr %13, align 8, !tbaa !20
  call void @llvm.lifetime.start.p0(i64 8, ptr %14) #5
  %29 = load i64, ptr %11, align 8, !tbaa !20
  store i64 %29, ptr %14, align 8, !tbaa !20
  call void @llvm.lifetime.start.p0(i64 8, ptr %15) #5
  store i64 1, ptr %15, align 8, !tbaa !20
  call void @llvm.lifetime.start.p0(i64 4, ptr %16) #5
  store i32 0, ptr %16, align 4, !tbaa !31
  call void @llvm.lifetime.start.p0(i64 8, ptr %17) #5
  %30 = load i64, ptr %11, align 8, !tbaa !20
  %31 = load ptr, ptr %4, align 8
  %32 = load i32, ptr %31, align 4, !tbaa !31
  call void @__kmpc_dispatch_init_8u(ptr @1, i32 %32, i32 1073741860, i64 0, i64 %30, i64 1, i64 1)
  br label %33

33:                                               ; preds = %60, %28
  %34 = load ptr, ptr %4, align 8
  %35 = load i32, ptr %34, align 4, !tbaa !31
  %36 = call i32 @__kmpc_dispatch_next_8u(ptr @1, i32 %35, ptr %16, ptr %13, ptr %14, ptr %15)
  %37 = icmp ne i32 %36, 0
  br i1 %37, label %39, label %38

38:                                               ; preds = %33
  br label %61

39:                                               ; preds = %33
  %40 = load i64, ptr %13, align 8, !tbaa !20
  store i64 %40, ptr %9, align 8, !tbaa !20
  br label %41

41:                                               ; preds = %56, %39
  %42 = load i64, ptr %9, align 8, !tbaa !20, !llvm.access.group !70
  %43 = load i64, ptr %14, align 8, !tbaa !20, !llvm.access.group !70
  %44 = add i64 %43, 1
  %45 = icmp ult i64 %42, %44
  br i1 %45, label %47, label %46

46:                                               ; preds = %41
  br label %59

47:                                               ; preds = %41
  %48 = load i64, ptr %9, align 8, !tbaa !20, !llvm.access.group !70
  %49 = mul i64 %48, 1
  %50 = add i64 0, %49
  store i64 %50, ptr %17, align 8, !tbaa !20, !llvm.access.group !70
  %51 = invoke noundef zeroext i8 @_ZNSt24uniform_int_distributionIhEclISt26linear_congruential_engineImLm48271ELm0ELm2147483647EEEEhRT_(ptr noundef nonnull align 1 dereferenceable(2) %8, ptr noundef nonnull align 8 dereferenceable(8) %7)
          to label %52 unwind label %67, !llvm.access.group !70

52:                                               ; preds = %47
  %53 = load i64, ptr %17, align 8, !tbaa !20, !llvm.access.group !70
  %54 = call noundef nonnull align 1 dereferenceable(1) ptr @_ZNSt6vectorIhSaIhEEixEm(ptr noundef nonnull align 8 dereferenceable(24) %18, i64 noundef %53) #5, !llvm.access.group !70
  store i8 %51, ptr %54, align 1, !tbaa !53, !llvm.access.group !70
  br label %55

55:                                               ; preds = %52
  br label %56

56:                                               ; preds = %55
  %57 = load i64, ptr %9, align 8, !tbaa !20, !llvm.access.group !70
  %58 = add i64 %57, 1
  store i64 %58, ptr %9, align 8, !tbaa !20, !llvm.access.group !70
  br label %41, !llvm.loop !71

59:                                               ; preds = %46
  br label %60

60:                                               ; preds = %59
  br label %33

61:                                               ; preds = %38
  %62 = load ptr, ptr %4, align 8
  %63 = load i32, ptr %62, align 4, !tbaa !31
  call void @__kmpc_dispatch_deinit(ptr @1, i32 %63)
  call void @llvm.lifetime.end.p0(i64 8, ptr %17) #5
  call void @llvm.lifetime.end.p0(i64 4, ptr %16) #5
  call void @llvm.lifetime.end.p0(i64 8, ptr %15) #5
  call void @llvm.lifetime.end.p0(i64 8, ptr %14) #5
  call void @llvm.lifetime.end.p0(i64 8, ptr %13) #5
  br label %64

64:                                               ; preds = %61, %20
  call void @llvm.lifetime.end.p0(i64 8, ptr %11) #5
  call void @llvm.lifetime.end.p0(i64 8, ptr %10) #5
  call void @llvm.lifetime.end.p0(i64 8, ptr %9) #5
  %65 = load ptr, ptr %4, align 8
  %66 = load i32, ptr %65, align 4, !tbaa !31
  call void @__kmpc_barrier(ptr @2, i32 %66)
  call void @llvm.lifetime.end.p0(i64 2, ptr %8) #5
  call void @llvm.lifetime.end.p0(i64 8, ptr %7) #5
  ret void

67:                                               ; preds = %47, %19, %3
  %68 = landingpad { ptr, i32 }
          catch ptr null
  %69 = extractvalue { ptr, i32 } %68, 0
  call void @__clang_call_terminate(ptr %69) #23
  unreachable
}