; Function Attrs: alwaysinline norecurse nounwind uwtable
define internal void @_Z4testmmmm.omp_outlined(ptr noalias noundef readonly captures(none) %0, ptr noalias readnone captures(none) %1, ptr noundef nonnull readonly align 8 captures(none) dereferenceable(24) %2) #10 personality ptr @__gxx_personality_v0 {
  %4 = alloca %"class.std::linear_congruential_engine", align 8
  %5 = alloca %"class.std::uniform_int_distribution", align 1
  %6 = alloca i64, align 8
  %7 = alloca i64, align 8
  %8 = alloca i64, align 8
  %9 = alloca i32, align 4
  call void @llvm.lifetime.start.p0(i64 8, ptr nonnull %4) #13
  store i64 123, ptr %4, align 8, !tbaa !97
  call void @llvm.lifetime.start.p0(i64 2, ptr nonnull %5) #13
  store i8 0, ptr %5, align 1, !tbaa !99
  %10 = getelementptr inbounds nuw i8, ptr %5, i64 1
  store i8 -1, ptr %10, align 1, !tbaa !101
  %11 = getelementptr inbounds nuw i8, ptr %2, i64 8
  %12 = load ptr, ptr %11, align 8, !tbaa !33
  %13 = load ptr, ptr %2, align 8, !tbaa !26
  %.not = icmp eq ptr %12, %13
  %.pre = load i32, ptr %0, align 4, !tbaa !24
  br i1 %.not, label %32, label %14

14:                                               ; preds = %3
  %15 = ptrtoint ptr %13 to i64
  %16 = ptrtoint ptr %12 to i64
  %17 = xor i64 %15, -1
  %18 = add i64 %17, %16
  call void @llvm.lifetime.start.p0(i64 8, ptr nonnull %6) #13
  store i64 0, ptr %6, align 8, !tbaa !5
  call void @llvm.lifetime.start.p0(i64 8, ptr nonnull %7) #13
  store i64 %18, ptr %7, align 8, !tbaa !5
  call void @llvm.lifetime.start.p0(i64 8, ptr nonnull %8) #13
  store i64 1, ptr %8, align 8, !tbaa !5
  call void @llvm.lifetime.start.p0(i64 4, ptr nonnull %9) #13
  store i32 0, ptr %9, align 4, !tbaa !24
  tail call void @__kmpc_dispatch_init_8u(ptr nonnull @1, i32 %.pre, i32 1073741860, i64 0, i64 %18, i64 1, i64 1)
  %19 = call i32 @__kmpc_dispatch_next_8u(ptr nonnull @1, i32 %.pre, ptr nonnull %9, ptr nonnull %6, ptr nonnull %7, ptr nonnull %8)
  %.not1214 = icmp eq i32 %19, 0
  br i1 %.not1214, label %._crit_edge, label %.lr.ph15

.loopexit:                                        ; preds = %_ZNSt24uniform_int_distributionIhEclISt26linear_congruential_engineImLm48271ELm0ELm2147483647EEEEhRT_.exit, %.lr.ph15
  %20 = call i32 @__kmpc_dispatch_next_8u(ptr nonnull @1, i32 %.pre, ptr nonnull %9, ptr nonnull %6, ptr nonnull %7, ptr nonnull %8)
  %.not12 = icmp eq i32 %20, 0
  br i1 %.not12, label %._crit_edge, label %.lr.ph15

.lr.ph15:                                         ; preds = %14, %.loopexit
  %21 = load i64, ptr %6, align 8, !tbaa !5
  %22 = load i64, ptr %7, align 8, !tbaa !5, !llvm.access.group !102
  %23 = add i64 %22, 1
  %24 = icmp ult i64 %21, %23
  br i1 %24, label %.lr.ph, label %.loopexit

.lr.ph:                                           ; preds = %.lr.ph15, %_ZNSt24uniform_int_distributionIhEclISt26linear_congruential_engineImLm48271ELm0ELm2147483647EEEEhRT_.exit
  %.013 = phi i64 [ %28, %_ZNSt24uniform_int_distributionIhEclISt26linear_congruential_engineImLm48271ELm0ELm2147483647EEEEhRT_.exit ], [ %21, %.lr.ph15 ]
  %25 = invoke noundef zeroext i8 @_ZNSt24uniform_int_distributionIhEclISt26linear_congruential_engineImLm48271ELm0ELm2147483647EEEEhRT_RKNS0_10param_typeE(ptr noundef nonnull align 1 dereferenceable(2) %5, ptr noundef nonnull align 8 dereferenceable(8) %4, ptr noundef nonnull align 1 dereferenceable(2) %5)
          to label %_ZNSt24uniform_int_distributionIhEclISt26linear_congruential_engineImLm48271ELm0ELm2147483647EEEEhRT_.exit unwind label %33

_ZNSt24uniform_int_distributionIhEclISt26linear_congruential_engineImLm48271ELm0ELm2147483647EEEEhRT_.exit: ; preds = %.lr.ph
  %26 = load ptr, ptr %2, align 8, !tbaa !26, !llvm.access.group !102
  %27 = getelementptr inbounds nuw i8, ptr %26, i64 %.013
  store i8 %25, ptr %27, align 1, !tbaa !15, !llvm.access.group !102
  %28 = add nuw i64 %.013, 1
  %29 = load i64, ptr %7, align 8, !tbaa !5, !llvm.access.group !102
  %30 = add i64 %29, 1
  %31 = icmp ult i64 %28, %30
  br i1 %31, label %.lr.ph, label %.loopexit, !llvm.loop !103

._crit_edge:                                      ; preds = %.loopexit, %14
  call void @__kmpc_dispatch_deinit(ptr nonnull @1, i32 %.pre)
  call void @llvm.lifetime.end.p0(i64 4, ptr nonnull %9) #13
  call void @llvm.lifetime.end.p0(i64 8, ptr nonnull %8) #13
  call void @llvm.lifetime.end.p0(i64 8, ptr nonnull %7) #13
  call void @llvm.lifetime.end.p0(i64 8, ptr nonnull %6) #13
  br label %32

32:                                               ; preds = %._crit_edge, %3
  call void @__kmpc_barrier(ptr nonnull @2, i32 %.pre)
  call void @llvm.lifetime.end.p0(i64 2, ptr nonnull %5) #13
  call void @llvm.lifetime.end.p0(i64 8, ptr nonnull %4) #13
  ret void

33:                                               ; preds = %.lr.ph
  %34 = landingpad { ptr, i32 }
          catch ptr null
  %35 = extractvalue { ptr, i32 } %34, 0
  call void @__clang_call_terminate(ptr %35) #29
  unreachable
}